; Function Attrs: nofree norecurse nosync nounwind memory(read, inaccessiblemem: none) uwtable
define ptr @Amap_LibFindGate(ptr noundef readonly captures(none) %0, i32 noundef %1) local_unnamed_addr #4 {
  %3 = getelementptr inbounds nuw i8, ptr %0, i64 16
  %4 = load ptr, ptr %3, align 8
  %5 = getelementptr i8, ptr %4, i64 4
  %.val = load i32, ptr %5, align 4
  %6 = icmp sgt i32 %.val, 0
  br i1 %6, label %.lr.ph, label %.critedge

.lr.ph:                                           ; preds = %2
  %7 = getelementptr i8, ptr %4, i64 8
  %.val14 = load ptr, ptr %7, align 8
  %wide.trip.count = zext nneg i32 %.val to i64
  br label %8

8:                                                ; preds = %.lr.ph, %23
  %indvars.iv = phi i64 [ 0, %.lr.ph ], [ %indvars.iv.next, %23 ]
  %9 = getelementptr inbounds nuw ptr, ptr %.val14, i64 %indvars.iv
  %10 = load ptr, ptr %9, align 8
  %11 = icmp eq ptr %10, null
  br i1 %11, label %23, label %12

12:                                               ; preds = %8
  %13 = getelementptr inbounds nuw i8, ptr %10, i64 48
  %14 = load ptr, ptr %13, align 8
  %15 = icmp eq ptr %14, null
  br i1 %15, label %23, label %16

16:                                               ; preds = %12
  %17 = getelementptr inbounds nuw i8, ptr %10, i64 56
  %18 = load i32, ptr %17, align 8
  %19 = icmp ult i32 %18, 100663296
  br i1 %19, label %20, label %23

20:                                               ; preds = %16
  %21 = load i32, ptr %14, align 4
  %22 = icmp eq i32 %21, %1
  br i1 %22, label %.critedge, label %23

23:                                               ; preds = %16, %20, %8, %12
  %indvars.iv.next = add nuw nsw i64 %indvars.iv, 1
  %exitcond.not = icmp eq i64 %indvars.iv.next, %wide.trip.count
  br i1 %exitcond.not, label %.critedge, label %8, !llvm.loop !9

.critedge:                                        ; preds = %20, %23, %2
  %.011 = phi ptr [ null, %2 ], [ null, %23 ], [ %10, %20 ]
  ret ptr %.011
}